target datalayout = "e-m:e-p270:32:32-p271:32:32-p272:64:64-i64:64-i128:128-f80:128-n8:16:32:64-S128"
target triple = "x86_64-pc-linux-gnu"

%"class.net::CubicBytes" = type { ptr, i32, %"class.net::QuicTime", %"class.net::QuicTime", i64, i64, i64, i64, i64, i32, i64 }
%"class.net::QuicTime" = type { i64 }

; Function Attrs: inlinehint mustprogress nounwind uwtable
define linkonce_odr void @_ZN3net8QuicTimeC2El(ptr noundef nonnull align 8 dereferenceable(8) %0, i64 noundef %1) unnamed_addr #5 comdat align 2 {
  %3 = alloca ptr, align 8
  %4 = alloca i64, align 8
  store ptr %0, ptr %3, align 8, !tbaa !34
  store i64 %1, ptr %4, align 8, !tbaa !17
  %5 = load ptr, ptr %3, align 8
  %6 = getelementptr inbounds nuw %"class.net::QuicTime", ptr %5, i32 0, i32 0
  %7 = load i64, ptr %4, align 8, !tbaa !17
  store i64 %7, ptr %6, align 8, !tbaa !31
  ret void
}

; Function Attrs: mustprogress uwtable
define void @_ZN3net10CubicBytes5ResetEv(ptr noundef nonnull align 8 dereferenceable(88) %0) #0 align 2 {
  %2 = alloca ptr, align 8
  %3 = alloca %"class.net::QuicTime", align 8
  %4 = alloca %"class.net::QuicTime", align 8
  store ptr %0, ptr %2, align 8, !tbaa !3
  %5 = load ptr, ptr %2, align 8
  call void @llvm.lifetime.start.p0(i64 8, ptr %3) #9
  %6 = call i64 @_ZN3net8QuicTime4ZeroEv()
  %7 = getelementptr inbounds nuw %"class.net::QuicTime", ptr %3, i32 0, i32 0
  store i64 %6, ptr %7, align 8
  %8 = getelementptr inbounds nuw %"class.net::CubicBytes", ptr %5, i32 0, i32 2
  call void @llvm.memcpy.p0.p0.i64(ptr align 8 %8, ptr align 8 %3, i64 8, i1 false), !tbaa.struct !16
  call void @llvm.lifetime.end.p0(i64 8, ptr %3) #9
  call void @llvm.lifetime.start.p0(i64 8, ptr %4) #9
  %9 = call i64 @_ZN3net8QuicTime4ZeroEv()
  %10 = getelementptr inbounds nuw %"class.net::QuicTime", ptr %4, i32 0, i32 0
  store i64 %9, ptr %10, align 8
  %11 = getelementptr inbounds nuw %"class.net::CubicBytes", ptr %5, i32 0, i32 3
  call void @llvm.memcpy.p0.p0.i64(ptr align 8 %11, ptr align 8 %4, i64 8, i1 false), !tbaa.struct !16
  call void @llvm.lifetime.end.p0(i64 8, ptr %4) #9
  %12 = getelementptr inbounds nuw %"class.net::CubicBytes", ptr %5, i32 0, i32 4
  store i64 0, ptr %12, align 8, !tbaa !18
  %13 = getelementptr inbounds nuw %"class.net::CubicBytes", ptr %5, i32 0, i32 5
  store i64 0, ptr %13, align 8, !tbaa !19
  %14 = getelementptr inbounds nuw %"class.net::CubicBytes", ptr %5, i32 0, i32 6
  store i64 0, ptr %14, align 8, !tbaa !20
  %15 = getelementptr inbounds nuw %"class.net::CubicBytes", ptr %5, i32 0, i32 7
  store i64 0, ptr %15, align 8, !tbaa !21
  %16 = getelementptr inbounds nuw %"class.net::CubicBytes", ptr %5, i32 0, i32 8
  store i64 0, ptr %16, align 8, !tbaa !22
  %17 = getelementptr inbounds nuw %"class.net::CubicBytes", ptr %5, i32 0, i32 9
  store i32 0, ptr %17, align 8, !tbaa !23
  %18 = getelementptr inbounds nuw %"class.net::CubicBytes", ptr %5, i32 0, i32 10
  store i64 0, ptr %18, align 8, !tbaa !24
  ret void
}

; Function Attrs: inlinehint mustprogress uwtable
define linkonce_odr i64 @_ZN3net8QuicTime4ZeroEv() #1 comdat align 2 {
  %1 = alloca %"class.net::QuicTime", align 8
  call void @_ZN3net8QuicTimeC2El(ptr noundef nonnull align 8 dereferenceable(8) %1, i64 noundef 0)
  %2 = getelementptr inbounds nuw %"class.net::QuicTime", ptr %1, i32 0, i32 0
  %3 = load i64, ptr %2, align 8
  ret i64 %3
}

; Function Attrs: mustprogress uwtable
define void @_ZN3net10CubicBytesC2EPKNS_9QuicClockE(ptr noundef nonnull align 8 dereferenceable(88) %0, ptr noundef %1) unnamed_addr #0 align 2 {
  %3 = alloca ptr, align 8
  %4 = alloca ptr, align 8
  store ptr %0, ptr %3, align 8, !tbaa !3
  store ptr %1, ptr %4, align 8, !tbaa !8
  %5 = load ptr, ptr %3, align 8
  %6 = getelementptr inbounds nuw %"class.net::CubicBytes", ptr %5, i32 0, i32 0
  %7 = load ptr, ptr %4, align 8, !tbaa !8
  store ptr %7, ptr %6, align 8, !tbaa !10
  %8 = getelementptr inbounds nuw %"class.net::CubicBytes", ptr %5, i32 0, i32 1
  store i32 2, ptr %8, align 8, !tbaa !15
  %9 = getelementptr inbounds nuw %"class.net::CubicBytes", ptr %5, i32 0, i32 2
  %10 = call i64 @_ZN3net8QuicTime4ZeroEv()
  %11 = getelementptr inbounds nuw %"class.net::QuicTime", ptr %9, i32 0, i32 0
  store i64 %10, ptr %11, align 8
  %12 = getelementptr inbounds nuw %"class.net::CubicBytes", ptr %5, i32 0, i32 3
  %13 = call i64 @_ZN3net8QuicTime4ZeroEv()
  %14 = getelementptr inbounds nuw %"class.net::QuicTime", ptr %12, i32 0, i32 0
  store i64 %13, ptr %14, align 8
  call void @_ZN3net10CubicBytes5ResetEv(ptr noundef nonnull align 8 dereferenceable(88) %5)
  ret void
}